Certificate:
    Data:
        Version: 3 (0x2)
        Serial Number: 26 (0x1a)
    Signature Algorithm: sha1WithRSAEncryption
        Issuer: C=CN, ST=GD, L=Shenzhen, O=ihuayue.cn, OU=IT, CN=ihuayue.cn CA/emailAddress=admin@ihuayue.cn
        Validity
            Not Before: Apr 18 05:51:47 2018 GMT
            Not After : Apr 15 05:51:47 2028 GMT
        Subject: C=CN, ST=GD, L=Shenzhen, O=ihuayue.cn, OU=Tech, CN=huangqi/emailAddress=huangqi@ihuayue.cn
        Subject Public Key Info:
            Public Key Algorithm: rsaEncryption
                Public-Key: (1024 bit)
                Modulus:
                    00:d3:f6:1e:84:c4:27:76:e6:1d:0e:8d:b6:25:75:
                    8d:70:18:da:31:bb:cd:cc:69:8f:78:cd:53:d4:90:
                    2c:5d:58:4e:64:fd:b1:d0:88:16:13:b4:0f:ee:ea:
                    eb:4f:13:7d:87:c6:1b:30:13:fa:c3:88:1d:a3:1c:
                    c8:6b:88:76:97:43:b6:94:a5:98:67:6c:53:d9:ba:
                    86:f4:4a:50:52:3b:8a:20:90:1d:56:04:c4:5e:73:
                    f1:34:be:c2:1c:5c:b5:bf:65:f4:26:c9:91:79:48:
                    66:9a:9c:76:e7:06:81:a3:ff:85:e8:93:81:a7:66:
                    b5:65:b4:d3:d7:09:53:77:59
                Exponent: 65537 (0x10001)
        X509v3 extensions:
            X509v3 Basic Constraints: 
                CA:FALSE
            Netscape Comment: 
                Easy-RSA Generated Certificate
            X509v3 Subject Key Identifier: 
                03:F3:40:34:31:A3:CA:81:EC:B6:B2:A0:EA:70:23:81:9B:48:F8:4F
            X509v3 Authority Key Identifier: 
                keyid:D1:70:B8:DC:A2:68:6E:A8:18:88:14:B6:7F:2E:EE:13:3C:EB:9D:34
                DirName:/C=CN/ST=GD/L=Shenzhen/O=ihuayue.cn/OU=IT/CN=ihuayue.cn CA/emailAddress=admin@ihuayue.cn
                serial:EE:EF:3A:77:1A:64:4D:3F

            X509v3 Extended Key Usage: 
                TLS Web Client Authentication
            X509v3 Key Usage: 
                Digital Signature
    Signature Algorithm: sha1WithRSAEncryption
         ac:03:dc:2f:68:bf:56:48:7b:1f:28:41:d8:ec:68:22:8a:8a:
         dc:30:23:91:94:02:72:7d:ac:7d:cc:cd:db:4c:05:d1:4c:48:
         f6:86:72:c0:d7:63:23:fe:95:99:ac:05:e7:e9:d4:2a:8d:82:
         8a:54:15:c0:81:6b:23:64:78:b0:f4:33:ab:41:b5:73:39:b1:
         f4:81:67:7f:9f:4e:7f:00:af:a7:c6:f6:9b:fe:12:0f:56:3e:
         fd:f3:88:5d:73:e7:2c:a0:9d:65:77:b9:02:59:d7:c8:fd:1f:
         24:5e:1f:45:b7:9e:cb:90:6d:04:cc:ed:58:ef:45:4c:28:fb:
         db:72
-----BEGIN CERTIFICATE-----
MIIDxzCCAzCgAwIBAgIBGjANBgkqhkiG9w0BAQUFADCBiDELMAkGA1UEBhMCQ04x
CzAJBgNVBAgTAkdEMREwDwYDVQQHEwhTaGVuemhlbjETMBEGA1UEChMKaWh1YXl1
ZS5jbjELMAkGA1UECxMCSVQxFjAUBgNVBAMTDWlodWF5dWUuY24gQ0ExHzAdBgkq
hkiG9w0BCQEWEGFkbWluQGlodWF5dWUuY24wHhcNMTgwNDE4MDU1MTQ3WhcNMjgw
NDE1MDU1MTQ3WjCBhjELMAkGA1UEBhMCQ04xCzAJBgNVBAgTAkdEMREwDwYDVQQH
EwhTaGVuemhlbjETMBEGA1UEChMKaWh1YXl1ZS5jbjENMAsGA1UECxMEVGVjaDEQ
MA4GA1UEAxMHaHVhbmdxaTEhMB8GCSqGSIb3DQEJARYSaHVhbmdxaUBpaHVheXVl
LmNuMIGfMA0GCSqGSIb3DQEBAQUAA4GNADCBiQKBgQDT9h6ExCd25h0OjbYldY1w
GNoxu83MaY94zVPUkCxdWE5k/bHQiBYTtA/u6utPE32HxhswE/rDiB2jHMhriHaX
Q7aUpZhnbFPZuob0SlBSO4ogkB1WBMRec/E0vsIcXLW/ZfQmyZF5SGaanHbnBoGj
/4Xok4GnZrVltNPXCVN3WQIDAQABo4IBPzCCATswCQYDVR0TBAIwADAtBglghkgB
hvhCAQ0EIBYeRWFzeS1SU0EgR2VuZXJhdGVkIENlcnRpZmljYXRlMB0GA1UdDgQW
BBQD80A0MaPKgey2sqDqcCOBm0j4TzCBvQYDVR0jBIG1MIGygBTRcLjcomhuqBiI
FLZ/Lu4TPOudNKGBjqSBizCBiDELMAkGA1UEBhMCQ04xCzAJBgNVBAgTAkdEMREw
DwYDVQQHEwhTaGVuemhlbjETMBEGA1UEChMKaWh1YXl1ZS5jbjELMAkGA1UECxMC
SVQxFjAUBgNVBAMTDWlodWF5dWUuY24gQ0ExHzAdBgkqhkiG9w0BCQEWEGFkbWlu
QGlodWF5dWUuY26CCQDu7zp3GmRNPzATBgNVHSUEDDAKBggrBgEFBQcDAjALBgNV
HQ8EBAMCB4AwDQYJKoZIhvcNAQEFBQADgYEArAPcL2i/Vkh7HyhB2OxoIoqK3DAj
kZQCcn2sfczN20wF0UxI9oZywNdjI/6VmawF5+nUKo2CilQVwIFrI2R4sPQzq0G1
czmx9IFnf59OfwCvp8b2m/4SD1Y+/fOIXXPnLKCdZXe5AlnXyP0fJF4fRbeey5Bt
BMztWO9FTCj723I=
-----END CERTIFICATE-----
